target datalayout = "e-m:e-p270:32:32-p271:32:32-p272:64:64-i64:64-i128:128-f80:128-n8:16:32:64-S128"
target triple = "x86_64-pc-linux-gnu"

%struct.point_t = type { float, float }
%struct.dt_lut_t = type { ptr, ptr, ptr, ptr, ptr, ptr, ptr, ptr, ptr, ptr, ptr, ptr, ptr, ptr, ptr, ptr, ptr, %struct.image_t, %struct.image_t, ptr, ptr, ptr, ptr, ptr }
%struct.image_t = type { ptr, ptr, ptr, i32, i32, ptr, float, i32, i32, float, [4 x %struct.point_t], ptr, i32 }
%struct.chart_t = type { ptr, ptr, ptr, ptr, float, float, float, float }

; Function Attrs: nounwind uwtable
define internal void @collect_source_patches(ptr noundef %0) #0 {
  %2 = alloca ptr, align 8
  store ptr %0, ptr %2, align 8, !tbaa !14
  %3 = load ptr, ptr %2, align 8, !tbaa !14
  %4 = getelementptr inbounds nuw %struct.dt_lut_t, ptr %3, i32 0, i32 20
  %5 = load ptr, ptr %4, align 8, !tbaa !31
  %6 = icmp ne ptr %5, null
  br i1 %6, label %7, label %14

7:                                                ; preds = %1
  %8 = load ptr, ptr %2, align 8, !tbaa !14
  %9 = getelementptr inbounds nuw %struct.dt_lut_t, ptr %8, i32 0, i32 20
  %10 = load ptr, ptr %9, align 8, !tbaa !31
  %11 = getelementptr inbounds nuw %struct.chart_t, ptr %10, i32 0, i32 2
  %12 = load ptr, ptr %11, align 8, !tbaa !124
  %13 = load ptr, ptr %2, align 8, !tbaa !14
  call void @g_hash_table_foreach(ptr noundef %12, ptr noundef @collect_source_patches_foreach, ptr noundef %13)
  br label %14

14:                                               ; preds = %7, %1
  ret void
}

; Function Attrs: nounwind uwtable
define internal void @reset_bb(ptr noundef %0) #0 {
  %2 = alloca ptr, align 8
  store ptr %0, ptr %2, align 8, !tbaa !48
  %3 = load ptr, ptr %2, align 8, !tbaa !48
  %4 = getelementptr inbounds nuw %struct.image_t, ptr %3, i32 0, i32 10
  %5 = getelementptr inbounds [4 x %struct.point_t], ptr %4, i64 0, i64 0
  %6 = getelementptr inbounds nuw %struct.point_t, ptr %5, i32 0, i32 0
  store float 0x3FA99999A0000000, ptr %6, align 8, !tbaa !113
  %7 = load ptr, ptr %2, align 8, !tbaa !48
  %8 = getelementptr inbounds nuw %struct.image_t, ptr %7, i32 0, i32 10
  %9 = getelementptr inbounds [4 x %struct.point_t], ptr %8, i64 0, i64 0
  %10 = getelementptr inbounds nuw %struct.point_t, ptr %9, i32 0, i32 1
  store float 0x3FA99999A0000000, ptr %10, align 4, !tbaa !117
  %11 = load ptr, ptr %2, align 8, !tbaa !48
  %12 = getelementptr inbounds nuw %struct.image_t, ptr %11, i32 0, i32 10
  %13 = getelementptr inbounds [4 x %struct.point_t], ptr %12, i64 0, i64 1
  %14 = getelementptr inbounds nuw %struct.point_t, ptr %13, i32 0, i32 0
  store float 0x3FEE666660000000, ptr %14, align 8, !tbaa !113
  %15 = load ptr, ptr %2, align 8, !tbaa !48
  %16 = getelementptr inbounds nuw %struct.image_t, ptr %15, i32 0, i32 10
  %17 = getelementptr inbounds [4 x %struct.point_t], ptr %16, i64 0, i64 1
  %18 = getelementptr inbounds nuw %struct.point_t, ptr %17, i32 0, i32 1
  store float 0x3FA99999A0000000, ptr %18, align 4, !tbaa !117
  %19 = load ptr, ptr %2, align 8, !tbaa !48
  %20 = getelementptr inbounds nuw %struct.image_t, ptr %19, i32 0, i32 10
  %21 = getelementptr inbounds [4 x %struct.point_t], ptr %20, i64 0, i64 2
  %22 = getelementptr inbounds nuw %struct.point_t, ptr %21, i32 0, i32 0
  store float 0x3FEE666660000000, ptr %22, align 8, !tbaa !113
  %23 = load ptr, ptr %2, align 8, !tbaa !48
  %24 = getelementptr inbounds nuw %struct.image_t, ptr %23, i32 0, i32 10
  %25 = getelementptr inbounds [4 x %struct.point_t], ptr %24, i64 0, i64 2
  %26 = getelementptr inbounds nuw %struct.point_t, ptr %25, i32 0, i32 1
  store float 0x3FEE666660000000, ptr %26, align 4, !tbaa !117
  %27 = load ptr, ptr %2, align 8, !tbaa !48
  %28 = getelementptr inbounds nuw %struct.image_t, ptr %27, i32 0, i32 10
  %29 = getelementptr inbounds [4 x %struct.point_t], ptr %28, i64 0, i64 3
  %30 = getelementptr inbounds nuw %struct.point_t, ptr %29, i32 0, i32 0
  store float 0x3FA99999A0000000, ptr %30, align 8, !tbaa !113
  %31 = load ptr, ptr %2, align 8, !tbaa !48
  %32 = getelementptr inbounds nuw %struct.image_t, ptr %31, i32 0, i32 10
  %33 = getelementptr inbounds [4 x %struct.point_t], ptr %32, i64 0, i64 3
  %34 = getelementptr inbounds nuw %struct.point_t, ptr %33, i32 0, i32 1
  store float 0x3FEE666660000000, ptr %34, align 4, !tbaa !117
  ret void
}

; Function Attrs: nounwind uwtable
define internal i32 @open_cht(ptr noundef %0, ptr noundef %1) #0 {
  %3 = alloca ptr, align 8
  %4 = alloca ptr, align 8
  %5 = alloca i32, align 4
  store ptr %0, ptr %3, align 8, !tbaa !14
  store ptr %1, ptr %4, align 8, !tbaa !29
  %6 = load ptr, ptr %3, align 8, !tbaa !14
  %7 = getelementptr inbounds nuw %struct.dt_lut_t, ptr %6, i32 0, i32 20
  %8 = load ptr, ptr %7, align 8, !tbaa !31
  %9 = icmp ne ptr %8, null
  br i1 %9, label %10, label %14

10:                                               ; preds = %2
  %11 = load ptr, ptr %3, align 8, !tbaa !14
  %12 = getelementptr inbounds nuw %struct.dt_lut_t, ptr %11, i32 0, i32 20
  %13 = load ptr, ptr %12, align 8, !tbaa !31
  call void @free_chart(ptr noundef %13)
  br label %14

14:                                               ; preds = %10, %2
  call void @llvm.lifetime.start.p0(i64 4, ptr %5) #15
  %15 = load ptr, ptr %4, align 8, !tbaa !29
  %16 = call ptr @parse_cht(ptr noundef %15)
  %17 = load ptr, ptr %3, align 8, !tbaa !14
  %18 = getelementptr inbounds nuw %struct.dt_lut_t, ptr %17, i32 0, i32 20
  store ptr %16, ptr %18, align 8, !tbaa !31
  %19 = icmp ne ptr %16, null
  %20 = zext i1 %19 to i32
  store i32 %20, ptr %5, align 4, !tbaa !7
  %21 = load ptr, ptr %3, align 8, !tbaa !14
  %22 = getelementptr inbounds nuw %struct.dt_lut_t, ptr %21, i32 0, i32 17
  call void @reset_bb(ptr noundef %22)
  %23 = load ptr, ptr %3, align 8, !tbaa !14
  %24 = getelementptr inbounds nuw %struct.dt_lut_t, ptr %23, i32 0, i32 18
  call void @reset_bb(ptr noundef %24)
  %25 = load ptr, ptr %3, align 8, !tbaa !14
  %26 = getelementptr inbounds nuw %struct.dt_lut_t, ptr %25, i32 0, i32 21
  %27 = load ptr, ptr %26, align 8, !tbaa !16
  call void @g_hash_table_remove_all(ptr noundef %27)
  %28 = load i32, ptr %5, align 4, !tbaa !7
  %29 = icmp ne i32 %28, 0
  br i1 %29, label %30, label %32

30:                                               ; preds = %14
  %31 = load ptr, ptr %3, align 8, !tbaa !14
  call void @collect_source_patches(ptr noundef %31)
  br label %32

32:                                               ; preds = %30, %14
  %33 = load ptr, ptr %3, align 8, !tbaa !14
  call void @init_table(ptr noundef %33)
  %34 = load i32, ptr %5, align 4, !tbaa !7
  %35 = icmp ne i32 %34, 0
  br i1 %35, label %42, label %36

36:                                               ; preds = %32
  %37 = load ptr, ptr %3, align 8, !tbaa !14
  %38 = getelementptr inbounds nuw %struct.dt_lut_t, ptr %37, i32 0, i32 2
  %39 = load ptr, ptr %38, align 8, !tbaa !40
  %40 = call i64 @gtk_file_chooser_get_type() #18
  %41 = call ptr @g_type_check_instance_cast(ptr noundef %39, i64 noundef %40)
  call void @gtk_file_chooser_unselect_all(ptr noundef %41)
  br label %42

42:                                               ; preds = %36, %32
  %43 = load ptr, ptr %3, align 8, !tbaa !14
  %44 = getelementptr inbounds nuw %struct.dt_lut_t, ptr %43, i32 0, i32 3
  %45 = load ptr, ptr %44, align 8, !tbaa !41
  %46 = call i64 @gtk_file_chooser_get_type() #18
  %47 = call ptr @g_type_check_instance_cast(ptr noundef %45, i64 noundef %46)
  call void @gtk_file_chooser_unselect_all(ptr noundef %47)
  %48 = load ptr, ptr %3, align 8, !tbaa !14
  %49 = getelementptr inbounds nuw %struct.dt_lut_t, ptr %48, i32 0, i32 4
  %50 = load ptr, ptr %49, align 8, !tbaa !42
  %51 = call i64 @gtk_file_chooser_get_type() #18
  %52 = call ptr @g_type_check_instance_cast(ptr noundef %50, i64 noundef %51)
  call void @gtk_file_chooser_unselect_all(ptr noundef %52)
  %53 = load i32, ptr %5, align 4, !tbaa !7
  %54 = icmp ne i32 %53, 0
  br i1 %54, label %55, label %82

55:                                               ; preds = %42
  %56 = load ptr, ptr %3, align 8, !tbaa !14
  %57 = getelementptr inbounds nuw %struct.dt_lut_t, ptr %56, i32 0, i32 20
  %58 = load ptr, ptr %57, align 8, !tbaa !31
  %59 = getelementptr inbounds nuw %struct.chart_t, ptr %58, i32 0, i32 6
  %60 = load float, ptr %59, align 8, !tbaa !77
  %61 = load ptr, ptr %3, align 8, !tbaa !14
  %62 = getelementptr inbounds nuw %struct.dt_lut_t, ptr %61, i32 0, i32 17
  %63 = getelementptr inbounds nuw %struct.image_t, ptr %62, i32 0, i32 9
  store float %60, ptr %63, align 4, !tbaa !80
  %64 = load ptr, ptr %3, align 8, !tbaa !14
  %65 = getelementptr inbounds nuw %struct.dt_lut_t, ptr %64, i32 0, i32 20
  %66 = load ptr, ptr %65, align 8, !tbaa !31
  %67 = getelementptr inbounds nuw %struct.chart_t, ptr %66, i32 0, i32 6
  %68 = load float, ptr %67, align 8, !tbaa !77
  %69 = load ptr, ptr %3, align 8, !tbaa !14
  %70 = getelementptr inbounds nuw %struct.dt_lut_t, ptr %69, i32 0, i32 18
  %71 = getelementptr inbounds nuw %struct.image_t, ptr %70, i32 0, i32 9
  store float %68, ptr %71, align 4, !tbaa !81
  %72 = load ptr, ptr %3, align 8, !tbaa !14
  %73 = getelementptr inbounds nuw %struct.dt_lut_t, ptr %72, i32 0, i32 12
  %74 = load ptr, ptr %73, align 8, !tbaa !82
  %75 = call i64 @gtk_range_get_type() #18
  %76 = call ptr @g_type_check_instance_cast(ptr noundef %74, i64 noundef %75)
  call void @gtk_range_set_value(ptr noundef %76, double noundef 1.000000e+00)
  %77 = load ptr, ptr %3, align 8, !tbaa !14
  %78 = getelementptr inbounds nuw %struct.dt_lut_t, ptr %77, i32 0, i32 13
  %79 = load ptr, ptr %78, align 8, !tbaa !83
  %80 = call i64 @gtk_range_get_type() #18
  %81 = call ptr @g_type_check_instance_cast(ptr noundef %79, i64 noundef %80)
  call void @gtk_range_set_value(ptr noundef %81, double noundef 1.000000e+00)
  br label %82

82:                                               ; preds = %55, %42
  %83 = load ptr, ptr %3, align 8, !tbaa !14
  %84 = getelementptr inbounds nuw %struct.dt_lut_t, ptr %83, i32 0, i32 3
  %85 = load ptr, ptr %84, align 8, !tbaa !41
  %86 = load i32, ptr %5, align 4, !tbaa !7
  call void @gtk_widget_set_sensitive(ptr noundef %85, i32 noundef %86)
  %87 = load ptr, ptr %3, align 8, !tbaa !14
  %88 = getelementptr inbounds nuw %struct.dt_lut_t, ptr %87, i32 0, i32 4
  %89 = load ptr, ptr %88, align 8, !tbaa !42
  %90 = load i32, ptr %5, align 4, !tbaa !7
  call void @gtk_widget_set_sensitive(ptr noundef %89, i32 noundef %90)
  %91 = load ptr, ptr %3, align 8, !tbaa !14
  %92 = getelementptr inbounds nuw %struct.dt_lut_t, ptr %91, i32 0, i32 7
  %93 = load ptr, ptr %92, align 8, !tbaa !43
  %94 = load i32, ptr %5, align 4, !tbaa !7
  call void @gtk_widget_set_sensitive(ptr noundef %93, i32 noundef %94)
  %95 = load ptr, ptr %3, align 8, !tbaa !14
  %96 = getelementptr inbounds nuw %struct.dt_lut_t, ptr %95, i32 0, i32 8
  %97 = load ptr, ptr %96, align 8, !tbaa !44
  call void @gtk_widget_set_sensitive(ptr noundef %97, i32 noundef 0)
  %98 = load ptr, ptr %3, align 8, !tbaa !14
  %99 = getelementptr inbounds nuw %struct.dt_lut_t, ptr %98, i32 0, i32 9
  %100 = load ptr, ptr %99, align 8, !tbaa !45
  call void @gtk_widget_set_sensitive(ptr noundef %100, i32 noundef 0)
  %101 = load ptr, ptr %3, align 8, !tbaa !14
  %102 = getelementptr inbounds nuw %struct.dt_lut_t, ptr %101, i32 0, i32 17
  %103 = getelementptr inbounds nuw %struct.image_t, ptr %102, i32 0, i32 0
  %104 = load ptr, ptr %103, align 8, !tbaa !76
  call void @gtk_widget_queue_draw(ptr noundef %104)
  %105 = load ptr, ptr %3, align 8, !tbaa !14
  %106 = getelementptr inbounds nuw %struct.dt_lut_t, ptr %105, i32 0, i32 18
  %107 = getelementptr inbounds nuw %struct.image_t, ptr %106, i32 0, i32 0
  %108 = load ptr, ptr %107, align 8, !tbaa !84
  call void @gtk_widget_queue_draw(ptr noundef %108)
  %109 = load i32, ptr %5, align 4, !tbaa !7
  call void @llvm.lifetime.end.p0(i64 4, ptr %5) #15
  ret i32 %109
}