; Function Attrs: nounwind uwtable
define internal fastcc range(i32 0, 2) i32 @open_cht(ptr noundef initializes((192, 224), (296, 328)) %0, ptr noundef %1) unnamed_addr #0 {
  %3 = getelementptr inbounds nuw i8, ptr %0, i64 352
  %4 = load ptr, ptr %3, align 8, !tbaa !64
  %.not = icmp eq ptr %4, null
  br i1 %.not, label %6, label %5

5:                                                ; preds = %2
  tail call void @free_chart(ptr noundef nonnull %4) #24
  br label %6

6:                                                ; preds = %5, %2
  %7 = tail call ptr @parse_cht(ptr noundef %1) #24
  store ptr %7, ptr %3, align 8, !tbaa !64
  %8 = icmp ne ptr %7, null
  %9 = getelementptr inbounds nuw i8, ptr %0, i64 192
  store float 0x3FA99999A0000000, ptr %9, align 8, !tbaa !58
  %10 = getelementptr inbounds nuw i8, ptr %0, i64 196
  store float 0x3FA99999A0000000, ptr %10, align 4, !tbaa !60
  %11 = getelementptr inbounds nuw i8, ptr %0, i64 200
  store float 0x3FEE666660000000, ptr %11, align 8, !tbaa !58
  %12 = getelementptr inbounds nuw i8, ptr %0, i64 204
  store float 0x3FA99999A0000000, ptr %12, align 4, !tbaa !60
  %13 = getelementptr inbounds nuw i8, ptr %0, i64 208
  store float 0x3FEE666660000000, ptr %13, align 8, !tbaa !58
  %14 = getelementptr inbounds nuw i8, ptr %0, i64 212
  store float 0x3FEE666660000000, ptr %14, align 4, !tbaa !60
  %15 = getelementptr inbounds nuw i8, ptr %0, i64 216
  store float 0x3FA99999A0000000, ptr %15, align 8, !tbaa !58
  %16 = getelementptr inbounds nuw i8, ptr %0, i64 220
  store float 0x3FEE666660000000, ptr %16, align 4, !tbaa !60
  %17 = getelementptr inbounds nuw i8, ptr %0, i64 296
  store float 0x3FA99999A0000000, ptr %17, align 8, !tbaa !58
  %18 = getelementptr inbounds nuw i8, ptr %0, i64 300
  store float 0x3FA99999A0000000, ptr %18, align 4, !tbaa !60
  %19 = getelementptr inbounds nuw i8, ptr %0, i64 304
  store float 0x3FEE666660000000, ptr %19, align 8, !tbaa !58
  %20 = getelementptr inbounds nuw i8, ptr %0, i64 308
  store float 0x3FA99999A0000000, ptr %20, align 4, !tbaa !60
  %21 = getelementptr inbounds nuw i8, ptr %0, i64 312
  store float 0x3FEE666660000000, ptr %21, align 8, !tbaa !58
  %22 = getelementptr inbounds nuw i8, ptr %0, i64 316
  store float 0x3FEE666660000000, ptr %22, align 4, !tbaa !60
  %23 = getelementptr inbounds nuw i8, ptr %0, i64 320
  store float 0x3FA99999A0000000, ptr %23, align 8, !tbaa !58
  %24 = getelementptr inbounds nuw i8, ptr %0, i64 324
  store float 0x3FEE666660000000, ptr %24, align 4, !tbaa !60
  %25 = getelementptr inbounds nuw i8, ptr %0, i64 360
  %26 = load ptr, ptr %25, align 8, !tbaa !7
  tail call void @g_hash_table_remove_all(ptr noundef %26) #24
  br i1 %8, label %27, label %.critedge

27:                                               ; preds = %6
  %28 = load ptr, ptr %3, align 8, !tbaa !64
  %.not.i = icmp eq ptr %28, null
  br i1 %.not.i, label %collect_source_patches.exit, label %29

29:                                               ; preds = %27
  %30 = getelementptr inbounds nuw i8, ptr %28, i64 16
  %31 = load ptr, ptr %30, align 8, !tbaa !75
  tail call void @g_hash_table_foreach(ptr noundef %31, ptr noundef nonnull @collect_source_patches_foreach, ptr noundef nonnull %0) #24
  br label %collect_source_patches.exit

collect_source_patches.exit:                      ; preds = %27, %29
  tail call fastcc void @init_table(ptr noundef nonnull %0)
  %.pre = tail call i64 @gtk_file_chooser_get_type() #28
  br label %36

.critedge:                                        ; preds = %6
  tail call fastcc void @init_table(ptr noundef nonnull %0)
  %32 = getelementptr inbounds nuw i8, ptr %0, i64 16
  %33 = load ptr, ptr %32, align 8, !tbaa !41
  %34 = tail call i64 @gtk_file_chooser_get_type() #28
  %35 = tail call ptr @g_type_check_instance_cast(ptr noundef %33, i64 noundef %34) #24
  tail call void @gtk_file_chooser_unselect_all(ptr noundef %35) #24
  br label %36

36:                                               ; preds = %collect_source_patches.exit, %.critedge
  %.pre-phi = phi i64 [ %.pre, %collect_source_patches.exit ], [ %34, %.critedge ]
  %37 = getelementptr inbounds nuw i8, ptr %0, i64 24
  %38 = load ptr, ptr %37, align 8, !tbaa !46
  %39 = tail call ptr @g_type_check_instance_cast(ptr noundef %38, i64 noundef %.pre-phi) #24
  tail call void @gtk_file_chooser_unselect_all(ptr noundef %39) #24
  %40 = getelementptr inbounds nuw i8, ptr %0, i64 32
  %41 = load ptr, ptr %40, align 8, !tbaa !47
  %42 = tail call ptr @g_type_check_instance_cast(ptr noundef %41, i64 noundef %.pre-phi) #24
  tail call void @gtk_file_chooser_unselect_all(ptr noundef %42) #24
  br i1 %8, label %43, label %56

43:                                               ; preds = %36
  %44 = load ptr, ptr %3, align 8, !tbaa !64
  %45 = getelementptr inbounds nuw i8, ptr %44, i64 40
  %46 = load float, ptr %45, align 8, !tbaa !78
  %47 = getelementptr inbounds nuw i8, ptr %0, i64 188
  store float %46, ptr %47, align 4, !tbaa !79
  %48 = getelementptr inbounds nuw i8, ptr %0, i64 292
  store float %46, ptr %48, align 4, !tbaa !80
  %49 = getelementptr inbounds nuw i8, ptr %0, i64 96
  %50 = load ptr, ptr %49, align 8, !tbaa !42
  %51 = tail call i64 @gtk_range_get_type() #28
  %52 = tail call ptr @g_type_check_instance_cast(ptr noundef %50, i64 noundef %51) #24
  tail call void @gtk_range_set_value(ptr noundef %52, double noundef 1.000000e+00) #24
  %53 = getelementptr inbounds nuw i8, ptr %0, i64 104
  %54 = load ptr, ptr %53, align 8, !tbaa !50
  %55 = tail call ptr @g_type_check_instance_cast(ptr noundef %54, i64 noundef %51) #24
  tail call void @gtk_range_set_value(ptr noundef %55, double noundef 1.000000e+00) #24
  br label %56

56:                                               ; preds = %43, %36
  %57 = getelementptr inbounds nuw i8, ptr %0, i64 240
  %58 = getelementptr inbounds nuw i8, ptr %0, i64 136
  %59 = zext i1 %8 to i32
  %60 = load ptr, ptr %37, align 8, !tbaa !46
  tail call void @gtk_widget_set_sensitive(ptr noundef %60, i32 noundef %59) #24
  %61 = load ptr, ptr %40, align 8, !tbaa !47
  tail call void @gtk_widget_set_sensitive(ptr noundef %61, i32 noundef %59) #24
  %62 = getelementptr inbounds nuw i8, ptr %0, i64 56
  %63 = load ptr, ptr %62, align 8, !tbaa !53
  tail call void @gtk_widget_set_sensitive(ptr noundef %63, i32 noundef %59) #24
  %64 = getelementptr inbounds nuw i8, ptr %0, i64 64
  %65 = load ptr, ptr %64, align 8, !tbaa !54
  tail call void @gtk_widget_set_sensitive(ptr noundef %65, i32 noundef 0) #24
  %66 = getelementptr inbounds nuw i8, ptr %0, i64 72
  %67 = load ptr, ptr %66, align 8, !tbaa !55
  tail call void @gtk_widget_set_sensitive(ptr noundef %67, i32 noundef 0) #24
  %68 = load ptr, ptr %58, align 8, !tbaa !39
  tail call void @gtk_widget_queue_draw(ptr noundef %68) #24
  %69 = load ptr, ptr %57, align 8, !tbaa !44
  tail call void @gtk_widget_queue_draw(ptr noundef %69) #24
  ret i32 %59
}